; Function Attrs: mustprogress nounwind uwtable
define internal void @"_ZN4absl12lts_2024072222internal_any_invocable23RemoteManagerNontrivialIZN17grpc_event_engine12experimental12AresResolver14LookupHostnameENS0_12AnyInvocableIFvNS0_8StatusOrISt6vectorINS4_11EventEngine15ResolvedAddressESaISA_EEEEEEESt17basic_string_viewIcSt11char_traitsIcEESJ_E3$_1EEvNS1_14FunctionToCallEPNS1_15TypeErasedStateESN_"(i1 noundef zeroext %0, ptr noundef readonly captures(none) %1, ptr noundef writeonly captures(none) %2) #11 personality ptr @__gxx_personality_v0 {
  %4 = load ptr, ptr %1, align 16, !tbaa !21
  br i1 %0, label %6, label %5

5:                                                ; preds = %3
  store ptr %4, ptr %2, align 16, !tbaa !21
  br label %19

6:                                                ; preds = %3
  %7 = icmp eq ptr %4, null
  br i1 %7, label %19, label %8

8:                                                ; preds = %6
  %9 = getelementptr inbounds nuw i8, ptr %4, i64 32
  %10 = load i64, ptr %9, align 8, !tbaa !18
  %11 = and i64 %10, 1
  %.not.i.i.i = icmp eq i64 %11, 0
  br i1 %.not.i.i.i, label %12, label %"_ZZN17grpc_event_engine12experimental12AresResolver14LookupHostnameEN4absl12lts_2024072212AnyInvocableIFvNS3_8StatusOrISt6vectorINS0_11EventEngine15ResolvedAddressESaIS8_EEEEEEESt17basic_string_viewIcSt11char_traitsIcEESH_EN3$_1D2Ev.exit"

12:                                               ; preds = %8
  %13 = inttoptr i64 %10 to ptr
  invoke void @_ZNK4absl12lts_2024072215status_internal9StatusRep5UnrefEv(ptr noundef nonnull align 8 dereferenceable(48) %13)
          to label %"_ZZN17grpc_event_engine12experimental12AresResolver14LookupHostnameEN4absl12lts_2024072212AnyInvocableIFvNS3_8StatusOrISt6vectorINS0_11EventEngine15ResolvedAddressESaIS8_EEEEEEESt17basic_string_viewIcSt11char_traitsIcEESH_EN3$_1D2Ev.exit" unwind label %14

14:                                               ; preds = %12
  %15 = landingpad { ptr, i32 }
          catch ptr null
  %16 = extractvalue { ptr, i32 } %15, 0
  tail call void @__clang_call_terminate(ptr %16) #37
  unreachable

"_ZZN17grpc_event_engine12experimental12AresResolver14LookupHostnameEN4absl12lts_2024072212AnyInvocableIFvNS3_8StatusOrISt6vectorINS0_11EventEngine15ResolvedAddressESaIS8_EEEEEEESt17basic_string_viewIcSt11char_traitsIcEESH_EN3$_1D2Ev.exit": ; preds = %8, %12
  %17 = getelementptr inbounds nuw i8, ptr %4, i64 16
  %18 = load ptr, ptr %17, align 16, !tbaa !108
  tail call void %18(i1 noundef zeroext true, ptr noundef nonnull align 16 dereferenceable(40) %4, ptr noundef nonnull align 16 dereferenceable(40) %4) #34
  tail call void @_ZdlPvm(ptr noundef nonnull %4, i64 noundef 48) #38
  br label %19

19:                                               ; preds = %6, %"_ZZN17grpc_event_engine12experimental12AresResolver14LookupHostnameEN4absl12lts_2024072212AnyInvocableIFvNS3_8StatusOrISt6vectorINS0_11EventEngine15ResolvedAddressESaIS8_EEEEEEESt17basic_string_viewIcSt11char_traitsIcEESH_EN3$_1D2Ev.exit", %5
  ret void
}